; Function Attrs: mustprogress nofree norecurse nosync nounwind willreturn memory(argmem: readwrite) uwtable
define void @_ZN8triggers18disabled_trigger_t12tdata1_writeEP11processor_tmb(ptr noundef nonnull writeonly align 8 captures(none) dereferenceable(45) initializes((44, 45)) %0, ptr noundef readonly captures(none) %1, i64 noundef %2, i1 zeroext %3) unnamed_addr #9 align 2 personality ptr @__gxx_personality_v0 {
  %5 = getelementptr inbounds nuw i8, ptr %1, i64 3964
  %6 = load i32, ptr %5, align 4, !tbaa !17
  %7 = zext i32 %6 to i64
  %8 = add nsw i64 %7, -5
  %9 = getelementptr inbounds nuw i8, ptr %0, i64 44
  %10 = lshr i64 %2, %8
  %11 = trunc i64 %10 to i8
  %12 = and i8 %11, 1
  store i8 %12, ptr %9, align 4, !tbaa !161
  ret void
}